target datalayout = "e-m:e-p270:32:32-p271:32:32-p272:64:64-i64:64-i128:128-f80:128-n8:16:32:64-S128"
target triple = "x86_64-pc-linux-gnu"

%struct.hwloc_topology = type { i32, i32, i32, ptr, ptr, i64, [20 x i32], [20 x i32], i64, i64, i32, ptr, i64, ptr, i64, [6 x %struct.hwloc_special_level_s], ptr, ptr, %struct.hwloc_binding_hooks, %struct.hwloc_topology_support, %struct.hwloc_infos_s, ptr, ptr, i32, ptr, ptr, i32, i32, ptr, i32, i32, ptr, i32, i32, i32, [5 x float], i32, ptr, ptr, i32, i32, ptr, i32, %struct.hwloc_numanode_attr_s, i32, i32, ptr, i64, i32, ptr, ptr, ptr }
%struct.hwloc_special_level_s = type { i32, ptr, ptr, ptr }
%struct.hwloc_binding_hooks = type { ptr, ptr, ptr, ptr, ptr, ptr, ptr, ptr, ptr, ptr, ptr, ptr, ptr, ptr, ptr, ptr, ptr, ptr, ptr, ptr, ptr, ptr, ptr, ptr }
%struct.hwloc_topology_support = type { ptr, ptr, ptr, ptr }
%struct.hwloc_infos_s = type { ptr, i32, i32 }
%struct.hwloc_numanode_attr_s = type { i64, i32, ptr }

; Function Attrs: nounwind uwtable
define internal ptr @hwloc_fix_membind(ptr noundef %0, ptr noundef %1) #0 {
  %3 = alloca ptr, align 8
  %4 = alloca ptr, align 8
  %5 = alloca ptr, align 8
  %6 = alloca ptr, align 8
  %7 = alloca ptr, align 8
  %8 = alloca i32, align 4
  store ptr %0, ptr %4, align 8, !tbaa !3
  store ptr %1, ptr %5, align 8, !tbaa !8
  call void @llvm.lifetime.start.p0(i64 8, ptr %6) #9
  %9 = load ptr, ptr %4, align 8, !tbaa !3
  %10 = call ptr @hwloc_topology_get_topology_nodeset(ptr noundef %9) #10
  store ptr %10, ptr %6, align 8, !tbaa !8
  call void @llvm.lifetime.start.p0(i64 8, ptr %7) #9
  %11 = load ptr, ptr %4, align 8, !tbaa !3
  %12 = call ptr @hwloc_topology_get_complete_nodeset(ptr noundef %11) #10
  store ptr %12, ptr %7, align 8, !tbaa !8
  %13 = load ptr, ptr %5, align 8, !tbaa !8
  %14 = call i32 @hwloc_bitmap_iszero(ptr noundef %13) #10
  %15 = icmp ne i32 %14, 0
  br i1 %15, label %16, label %18

16:                                               ; preds = %2
  %17 = call ptr @__errno_location() #8
  store i32 22, ptr %17, align 4, !tbaa !10
  store ptr null, ptr %3, align 8
  store i32 1, ptr %8, align 4
  br label %34

18:                                               ; preds = %2
  %19 = load ptr, ptr %5, align 8, !tbaa !8
  %20 = load ptr, ptr %7, align 8, !tbaa !8
  %21 = call i32 @hwloc_bitmap_isincluded(ptr noundef %19, ptr noundef %20) #10
  %22 = icmp ne i32 %21, 0
  br i1 %22, label %25, label %23

23:                                               ; preds = %18
  %24 = call ptr @__errno_location() #8
  store i32 22, ptr %24, align 4, !tbaa !10
  store ptr null, ptr %3, align 8
  store i32 1, ptr %8, align 4
  br label %34

25:                                               ; preds = %18
  %26 = load ptr, ptr %6, align 8, !tbaa !8
  %27 = load ptr, ptr %5, align 8, !tbaa !8
  %28 = call i32 @hwloc_bitmap_isincluded(ptr noundef %26, ptr noundef %27) #10
  %29 = icmp ne i32 %28, 0
  br i1 %29, label %30, label %32

30:                                               ; preds = %25
  %31 = load ptr, ptr %7, align 8, !tbaa !8
  store ptr %31, ptr %3, align 8
  store i32 1, ptr %8, align 4
  br label %34

32:                                               ; preds = %25
  %33 = load ptr, ptr %5, align 8, !tbaa !8
  store ptr %33, ptr %3, align 8
  store i32 1, ptr %8, align 4
  br label %34

34:                                               ; preds = %32, %30, %23, %16
  call void @llvm.lifetime.end.p0(i64 8, ptr %7) #9
  call void @llvm.lifetime.end.p0(i64 8, ptr %6) #9
  %35 = load ptr, ptr %3, align 8
  ret ptr %35
}

; Function Attrs: inlinehint nounwind uwtable
define internal i32 @hwloc__check_membind_policy(i32 noundef %0) #4 {
  %2 = alloca i32, align 4
  %3 = alloca i32, align 4
  store i32 %0, ptr %3, align 4, !tbaa !10
  %4 = load i32, ptr %3, align 4, !tbaa !10
  %5 = icmp eq i32 %4, 0
  br i1 %5, label %21, label %6

6:                                                ; preds = %1
  %7 = load i32, ptr %3, align 4, !tbaa !10
  %8 = icmp eq i32 %7, 1
  br i1 %8, label %21, label %9

9:                                                ; preds = %6
  %10 = load i32, ptr %3, align 4, !tbaa !10
  %11 = icmp eq i32 %10, 2
  br i1 %11, label %21, label %12

12:                                               ; preds = %9
  %13 = load i32, ptr %3, align 4, !tbaa !10
  %14 = icmp eq i32 %13, 3
  br i1 %14, label %21, label %15

15:                                               ; preds = %12
  %16 = load i32, ptr %3, align 4, !tbaa !10
  %17 = icmp eq i32 %16, 5
  br i1 %17, label %21, label %18

18:                                               ; preds = %15
  %19 = load i32, ptr %3, align 4, !tbaa !10
  %20 = icmp eq i32 %19, 4
  br i1 %20, label %21, label %22

21:                                               ; preds = %18, %15, %12, %9, %6, %1
  store i32 0, ptr %2, align 4
  br label %23

22:                                               ; preds = %18
  store i32 -1, ptr %2, align 4
  br label %23

23:                                               ; preds = %22, %21
  %24 = load i32, ptr %2, align 4
  ret i32 %24
}

; Function Attrs: nounwind uwtable
define internal i32 @hwloc_set_membind_by_nodeset(ptr noundef %0, ptr noundef %1, i32 noundef %2, i32 noundef %3) #0 {
  %5 = alloca i32, align 4
  %6 = alloca ptr, align 8
  %7 = alloca ptr, align 8
  %8 = alloca i32, align 4
  %9 = alloca i32, align 4
  %10 = alloca i32, align 4
  %11 = alloca i32, align 4
  store ptr %0, ptr %6, align 8, !tbaa !3
  store ptr %1, ptr %7, align 8, !tbaa !8
  store i32 %2, ptr %8, align 4, !tbaa !10
  store i32 %3, ptr %9, align 4, !tbaa !10
  %12 = load i32, ptr %9, align 4, !tbaa !10
  %13 = and i32 %12, -64
  %14 = icmp ne i32 %13, 0
  br i1 %14, label %19, label %15

15:                                               ; preds = %4
  %16 = load i32, ptr %8, align 4, !tbaa !10
  %17 = call i32 @hwloc__check_membind_policy(i32 noundef %16)
  %18 = icmp slt i32 %17, 0
  br i1 %18, label %19, label %21

19:                                               ; preds = %15, %4
  %20 = call ptr @__errno_location() #8
  store i32 22, ptr %20, align 4, !tbaa !10
  store i32 -1, ptr %5, align 4
  br label %118

21:                                               ; preds = %15
  %22 = load ptr, ptr %6, align 8, !tbaa !3
  %23 = load ptr, ptr %7, align 8, !tbaa !8
  %24 = call ptr @hwloc_fix_membind(ptr noundef %22, ptr noundef %23)
  store ptr %24, ptr %7, align 8, !tbaa !8
  %25 = load ptr, ptr %7, align 8, !tbaa !8
  %26 = icmp ne ptr %25, null
  br i1 %26, label %28, label %27

27:                                               ; preds = %21
  store i32 -1, ptr %5, align 4
  br label %118

28:                                               ; preds = %21
  %29 = load i32, ptr %9, align 4, !tbaa !10
  %30 = and i32 %29, 1
  %31 = icmp ne i32 %30, 0
  br i1 %31, label %32, label %49

32:                                               ; preds = %28
  %33 = load ptr, ptr %6, align 8, !tbaa !3
  %34 = getelementptr inbounds nuw %struct.hwloc_topology, ptr %33, i32 0, i32 18
  %35 = getelementptr inbounds nuw %struct.hwloc_binding_hooks, ptr %34, i32 0, i32 11
  %36 = load ptr, ptr %35, align 8, !tbaa !46
  %37 = icmp ne ptr %36, null
  br i1 %37, label %38, label %48

38:                                               ; preds = %32
  %39 = load ptr, ptr %6, align 8, !tbaa !3
  %40 = getelementptr inbounds nuw %struct.hwloc_topology, ptr %39, i32 0, i32 18
  %41 = getelementptr inbounds nuw %struct.hwloc_binding_hooks, ptr %40, i32 0, i32 11
  %42 = load ptr, ptr %41, align 8, !tbaa !46
  %43 = load ptr, ptr %6, align 8, !tbaa !3
  %44 = load ptr, ptr %7, align 8, !tbaa !8
  %45 = load i32, ptr %8, align 4, !tbaa !10
  %46 = load i32, ptr %9, align 4, !tbaa !10
  %47 = call i32 %42(ptr noundef %43, ptr noundef %44, i32 noundef %45, i32 noundef %46)
  store i32 %47, ptr %5, align 4
  br label %118

48:                                               ; preds = %32
  br label %116

49:                                               ; preds = %28
  %50 = load i32, ptr %9, align 4, !tbaa !10
  %51 = and i32 %50, 2
  %52 = icmp ne i32 %51, 0
  br i1 %52, label %53, label %70

53:                                               ; preds = %49
  %54 = load ptr, ptr %6, align 8, !tbaa !3
  %55 = getelementptr inbounds nuw %struct.hwloc_topology, ptr %54, i32 0, i32 18
  %56 = getelementptr inbounds nuw %struct.hwloc_binding_hooks, ptr %55, i32 0, i32 13
  %57 = load ptr, ptr %56, align 8, !tbaa !47
  %58 = icmp ne ptr %57, null
  br i1 %58, label %59, label %69

59:                                               ; preds = %53
  %60 = load ptr, ptr %6, align 8, !tbaa !3
  %61 = getelementptr inbounds nuw %struct.hwloc_topology, ptr %60, i32 0, i32 18
  %62 = getelementptr inbounds nuw %struct.hwloc_binding_hooks, ptr %61, i32 0, i32 13
  %63 = load ptr, ptr %62, align 8, !tbaa !47
  %64 = load ptr, ptr %6, align 8, !tbaa !3
  %65 = load ptr, ptr %7, align 8, !tbaa !8
  %66 = load i32, ptr %8, align 4, !tbaa !10
  %67 = load i32, ptr %9, align 4, !tbaa !10
  %68 = call i32 %63(ptr noundef %64, ptr noundef %65, i32 noundef %66, i32 noundef %67)
  store i32 %68, ptr %5, align 4
  br label %118

69:                                               ; preds = %53
  br label %115

70:                                               ; preds = %49
  %71 = load ptr, ptr %6, align 8, !tbaa !3
  %72 = getelementptr inbounds nuw %struct.hwloc_topology, ptr %71, i32 0, i32 18
  %73 = getelementptr inbounds nuw %struct.hwloc_binding_hooks, ptr %72, i32 0, i32 11
  %74 = load ptr, ptr %73, align 8, !tbaa !46
  %75 = icmp ne ptr %74, null
  br i1 %75, label %76, label %98

76:                                               ; preds = %70
  call void @llvm.lifetime.start.p0(i64 4, ptr %10) #9
  %77 = load ptr, ptr %6, align 8, !tbaa !3
  %78 = getelementptr inbounds nuw %struct.hwloc_topology, ptr %77, i32 0, i32 18
  %79 = getelementptr inbounds nuw %struct.hwloc_binding_hooks, ptr %78, i32 0, i32 11
  %80 = load ptr, ptr %79, align 8, !tbaa !46
  %81 = load ptr, ptr %6, align 8, !tbaa !3
  %82 = load ptr, ptr %7, align 8, !tbaa !8
  %83 = load i32, ptr %8, align 4, !tbaa !10
  %84 = load i32, ptr %9, align 4, !tbaa !10
  %85 = call i32 %80(ptr noundef %81, ptr noundef %82, i32 noundef %83, i32 noundef %84)
  store i32 %85, ptr %10, align 4, !tbaa !10
  %86 = load i32, ptr %10, align 4, !tbaa !10
  %87 = icmp sge i32 %86, 0
  br i1 %87, label %92, label %88

88:                                               ; preds = %76
  %89 = call ptr @__errno_location() #8
  %90 = load i32, ptr %89, align 4, !tbaa !10
  %91 = icmp ne i32 %90, 38
  br i1 %91, label %92, label %94

92:                                               ; preds = %88, %76
  %93 = load i32, ptr %10, align 4, !tbaa !10
  store i32 %93, ptr %5, align 4
  store i32 1, ptr %11, align 4
  br label %95

94:                                               ; preds = %88
  store i32 0, ptr %11, align 4
  br label %95

95:                                               ; preds = %94, %92
  call void @llvm.lifetime.end.p0(i64 4, ptr %10) #9
  %96 = load i32, ptr %11, align 4
  switch i32 %96, label %120 [
    i32 0, label %97
    i32 1, label %118
  ]

97:                                               ; preds = %95
  br label %98

98:                                               ; preds = %97, %70
  %99 = load ptr, ptr %6, align 8, !tbaa !3
  %100 = getelementptr inbounds nuw %struct.hwloc_topology, ptr %99, i32 0, i32 18
  %101 = getelementptr inbounds nuw %struct.hwloc_binding_hooks, ptr %100, i32 0, i32 13
  %102 = load ptr, ptr %101, align 8, !tbaa !47
  %103 = icmp ne ptr %102, null
  br i1 %103, label %104, label %114

104:                                              ; preds = %98
  %105 = load ptr, ptr %6, align 8, !tbaa !3
  %106 = getelementptr inbounds nuw %struct.hwloc_topology, ptr %105, i32 0, i32 18
  %107 = getelementptr inbounds nuw %struct.hwloc_binding_hooks, ptr %106, i32 0, i32 13
  %108 = load ptr, ptr %107, align 8, !tbaa !47
  %109 = load ptr, ptr %6, align 8, !tbaa !3
  %110 = load ptr, ptr %7, align 8, !tbaa !8
  %111 = load i32, ptr %8, align 4, !tbaa !10
  %112 = load i32, ptr %9, align 4, !tbaa !10
  %113 = call i32 %108(ptr noundef %109, ptr noundef %110, i32 noundef %111, i32 noundef %112)
  store i32 %113, ptr %5, align 4
  br label %118

114:                                              ; preds = %98
  br label %115

115:                                              ; preds = %114, %69
  br label %116

116:                                              ; preds = %115, %48
  %117 = call ptr @__errno_location() #8
  store i32 38, ptr %117, align 4, !tbaa !10
  store i32 -1, ptr %5, align 4
  br label %118

118:                                              ; preds = %116, %104, %95, %59, %38, %27, %19
  %119 = load i32, ptr %5, align 4
  ret i32 %119

120:                                              ; preds = %95
  unreachable
}