; Function Attrs: nounwind uwtable
define internal fastcc i32 @hwloc_set_membind_by_nodeset(ptr noundef %0, ptr noundef %1, i32 noundef %2, i32 noundef %3) unnamed_addr #0 {
  %.not = icmp ugt i32 %3, 63
  %or.cond9.i = icmp ugt i32 %2, 5
  %or.cond = or i1 %or.cond9.i, %.not
  br i1 %or.cond, label %5, label %7

5:                                                ; preds = %4
  %6 = tail call ptr @__errno_location() #12
  store i32 22, ptr %6, align 4, !tbaa !3
  br label %hwloc_fix_membind.exit.thread

7:                                                ; preds = %4
  %8 = tail call ptr @hwloc_topology_get_topology_nodeset(ptr noundef readonly %0) #13
  %9 = tail call ptr @hwloc_topology_get_complete_nodeset(ptr noundef readonly %0) #13
  %10 = tail call i32 @hwloc_bitmap_iszero(ptr noundef readonly %1) #13
  %.not.i = icmp eq i32 %10, 0
  br i1 %.not.i, label %13, label %11

11:                                               ; preds = %7
  %12 = tail call ptr @__errno_location() #12
  store i32 22, ptr %12, align 4, !tbaa !3
  br label %hwloc_fix_membind.exit.thread

13:                                               ; preds = %7
  %14 = tail call i32 @hwloc_bitmap_isincluded(ptr noundef readonly %1, ptr noundef %9) #13
  %.not10.i = icmp eq i32 %14, 0
  br i1 %.not10.i, label %15, label %hwloc_fix_membind.exit

15:                                               ; preds = %13
  %16 = tail call ptr @__errno_location() #12
  store i32 22, ptr %16, align 4, !tbaa !3
  br label %hwloc_fix_membind.exit.thread

hwloc_fix_membind.exit:                           ; preds = %13
  %17 = tail call i32 @hwloc_bitmap_isincluded(ptr noundef %8, ptr noundef readonly %1) #13
  %.not11.i = icmp eq i32 %17, 0
  %..i48 = select i1 %.not11.i, ptr %1, ptr %9
  %.not40 = icmp eq ptr %..i48, null
  br i1 %.not40, label %hwloc_fix_membind.exit.thread, label %18

18:                                               ; preds = %hwloc_fix_membind.exit
  %19 = and i32 %3, 1
  %.not41 = icmp eq i32 %19, 0
  br i1 %.not41, label %25, label %20

20:                                               ; preds = %18
  %21 = getelementptr inbounds nuw i8, ptr %0, i64 552
  %22 = load ptr, ptr %21, align 8, !tbaa !42
  %.not47 = icmp eq ptr %22, null
  br i1 %.not47, label %46, label %23

23:                                               ; preds = %20
  %24 = tail call i32 %22(ptr noundef nonnull %0, ptr noundef nonnull %..i48, i32 noundef %2, i32 noundef %3) #14
  br label %hwloc_fix_membind.exit.thread

25:                                               ; preds = %18
  %26 = and i32 %3, 2
  %.not42 = icmp eq i32 %26, 0
  br i1 %.not42, label %32, label %27

27:                                               ; preds = %25
  %28 = getelementptr inbounds nuw i8, ptr %0, i64 568
  %29 = load ptr, ptr %28, align 8, !tbaa !43
  %.not46 = icmp eq ptr %29, null
  br i1 %.not46, label %46, label %30

30:                                               ; preds = %27
  %31 = tail call i32 %29(ptr noundef nonnull %0, ptr noundef nonnull %..i48, i32 noundef %2, i32 noundef %3) #14
  br label %hwloc_fix_membind.exit.thread

32:                                               ; preds = %25
  %33 = getelementptr inbounds nuw i8, ptr %0, i64 552
  %34 = load ptr, ptr %33, align 8, !tbaa !42
  %.not43 = icmp eq ptr %34, null
  br i1 %.not43, label %41, label %35

35:                                               ; preds = %32
  %36 = tail call i32 %34(ptr noundef nonnull %0, ptr noundef nonnull %..i48, i32 noundef %2, i32 noundef %3) #14
  %37 = icmp sgt i32 %36, -1
  br i1 %37, label %hwloc_fix_membind.exit.thread, label %38

38:                                               ; preds = %35
  %39 = tail call ptr @__errno_location() #12
  %40 = load i32, ptr %39, align 4, !tbaa !3
  %.not44 = icmp eq i32 %40, 38
  br i1 %.not44, label %41, label %hwloc_fix_membind.exit.thread

41:                                               ; preds = %38, %32
  %42 = getelementptr inbounds nuw i8, ptr %0, i64 568
  %43 = load ptr, ptr %42, align 8, !tbaa !43
  %.not45 = icmp eq ptr %43, null
  br i1 %.not45, label %46, label %44

44:                                               ; preds = %41
  %45 = tail call i32 %43(ptr noundef nonnull %0, ptr noundef nonnull %..i48, i32 noundef %2, i32 noundef %3) #14
  br label %hwloc_fix_membind.exit.thread

46:                                               ; preds = %27, %41, %20
  %47 = tail call ptr @__errno_location() #12
  store i32 38, ptr %47, align 4, !tbaa !3
  br label %hwloc_fix_membind.exit.thread

hwloc_fix_membind.exit.thread:                    ; preds = %38, %35, %15, %11, %hwloc_fix_membind.exit, %46, %44, %30, %23, %5
  %.034 = phi i32 [ -1, %5 ], [ %24, %23 ], [ -1, %46 ], [ %31, %30 ], [ %45, %44 ], [ -1, %hwloc_fix_membind.exit ], [ -1, %11 ], [ -1, %15 ], [ %36, %35 ], [ %36, %38 ]
  ret i32 %.034
}